target datalayout = "e-m:e-p270:32:32-p271:32:32-p272:64:64-i64:64-i128:128-f80:128-n8:16:32:64-S128"
target triple = "x86_64-pc-linux-gnu"

%struct.ma_panner_config = type { i32, i32, i32, float }
%struct.ma_panner = type { i32, i32, i32, float }

; Function Attrs: alwaysinline nounwind uwtable
define internal void @ma_zero_memory_default(ptr noundef %0, i64 noundef %1) #7 {
  %3 = alloca ptr, align 8
  %4 = alloca i64, align 8
  store ptr %0, ptr %3, align 8, !tbaa !25
  store i64 %1, ptr %4, align 8, !tbaa !12
  %5 = load ptr, ptr %3, align 8, !tbaa !25
  %6 = icmp eq ptr %5, null
  br i1 %6, label %7, label %8

7:                                                ; preds = %2
  br label %14

8:                                                ; preds = %2
  %9 = load i64, ptr %4, align 8, !tbaa !12
  %10 = icmp ugt i64 %9, 0
  br i1 %10, label %11, label %14

11:                                               ; preds = %8
  %12 = load ptr, ptr %3, align 8, !tbaa !25
  %13 = load i64, ptr %4, align 8, !tbaa !12
  call void @llvm.memset.p0.i64(ptr align 1 %12, i8 0, i64 %13, i1 false)
  br label %14

14:                                               ; preds = %7, %11, %8
  ret void
}

; Function Attrs: nounwind uwtable
define i32 @ma_panner_init(ptr noundef %0, ptr noundef %1) #0 {
  %3 = alloca i32, align 4
  %4 = alloca ptr, align 8
  %5 = alloca ptr, align 8
  store ptr %0, ptr %4, align 8, !tbaa !25
  store ptr %1, ptr %5, align 8, !tbaa !25
  %6 = load ptr, ptr %5, align 8, !tbaa !25
  %7 = icmp eq ptr %6, null
  br i1 %7, label %8, label %9

8:                                                ; preds = %2
  store i32 -2, ptr %3, align 4
  br label %35

9:                                                ; preds = %2
  %10 = load ptr, ptr %5, align 8, !tbaa !25
  call void @ma_zero_memory_default(ptr noundef %10, i64 noundef 16)
  %11 = load ptr, ptr %4, align 8, !tbaa !25
  %12 = icmp eq ptr %11, null
  br i1 %12, label %13, label %14

13:                                               ; preds = %9
  store i32 -2, ptr %3, align 4
  br label %35

14:                                               ; preds = %9
  %15 = load ptr, ptr %4, align 8, !tbaa !25
  %16 = getelementptr inbounds nuw %struct.ma_panner_config, ptr %15, i32 0, i32 0
  %17 = load i32, ptr %16, align 4, !tbaa !578
  %18 = load ptr, ptr %5, align 8, !tbaa !25
  %19 = getelementptr inbounds nuw %struct.ma_panner, ptr %18, i32 0, i32 0
  store i32 %17, ptr %19, align 4, !tbaa !578
  %20 = load ptr, ptr %4, align 8, !tbaa !25
  %21 = getelementptr inbounds nuw %struct.ma_panner_config, ptr %20, i32 0, i32 1
  %22 = load i32, ptr %21, align 4, !tbaa !580
  %23 = load ptr, ptr %5, align 8, !tbaa !25
  %24 = getelementptr inbounds nuw %struct.ma_panner, ptr %23, i32 0, i32 1
  store i32 %22, ptr %24, align 4, !tbaa !580
  %25 = load ptr, ptr %4, align 8, !tbaa !25
  %26 = getelementptr inbounds nuw %struct.ma_panner_config, ptr %25, i32 0, i32 2
  %27 = load i32, ptr %26, align 4, !tbaa !581
  %28 = load ptr, ptr %5, align 8, !tbaa !25
  %29 = getelementptr inbounds nuw %struct.ma_panner, ptr %28, i32 0, i32 2
  store i32 %27, ptr %29, align 4, !tbaa !581
  %30 = load ptr, ptr %4, align 8, !tbaa !25
  %31 = getelementptr inbounds nuw %struct.ma_panner_config, ptr %30, i32 0, i32 3
  %32 = load float, ptr %31, align 4, !tbaa !582
  %33 = load ptr, ptr %5, align 8, !tbaa !25
  %34 = getelementptr inbounds nuw %struct.ma_panner, ptr %33, i32 0, i32 3
  store float %32, ptr %34, align 4, !tbaa !582
  store i32 0, ptr %3, align 4
  br label %35

35:                                               ; preds = %14, %13, %8
  %36 = load i32, ptr %3, align 4
  ret i32 %36
}