; Function Attrs: mustprogress nofree norecurse nosync nounwind willreturn memory(argmem: readwrite) uwtable
define range(i32 -2, 1) i32 @ma_panner_init(ptr noundef readonly captures(address_is_null) %0, ptr noundef writeonly captures(address_is_null) %1) local_unnamed_addr #13 {
  %3 = icmp eq ptr %1, null
  br i1 %3, label %16, label %ma_zero_memory_default.exit

ma_zero_memory_default.exit:                      ; preds = %2
  tail call void @llvm.memset.p0.i64(ptr noundef nonnull align 1 dereferenceable(16) %1, i8 0, i64 16, i1 false)
  %4 = icmp eq ptr %0, null
  br i1 %4, label %16, label %5

5:                                                ; preds = %ma_zero_memory_default.exit
  %6 = load i32, ptr %0, align 4, !tbaa !722
  store i32 %6, ptr %1, align 4, !tbaa !722
  %7 = getelementptr inbounds nuw i8, ptr %0, i64 4
  %8 = load i32, ptr %7, align 4, !tbaa !724
  %9 = getelementptr inbounds nuw i8, ptr %1, i64 4
  store i32 %8, ptr %9, align 4, !tbaa !724
  %10 = getelementptr inbounds nuw i8, ptr %0, i64 8
  %11 = load i32, ptr %10, align 4, !tbaa !725
  %12 = getelementptr inbounds nuw i8, ptr %1, i64 8
  store i32 %11, ptr %12, align 4, !tbaa !725
  %13 = getelementptr inbounds nuw i8, ptr %0, i64 12
  %14 = load float, ptr %13, align 4, !tbaa !726
  %15 = getelementptr inbounds nuw i8, ptr %1, i64 12
  store float %14, ptr %15, align 4, !tbaa !726
  br label %16

16:                                               ; preds = %ma_zero_memory_default.exit, %2, %5
  %.0 = phi i32 [ 0, %5 ], [ -2, %2 ], [ -2, %ma_zero_memory_default.exit ]
  ret i32 %.0
}